target datalayout = "e-m:e-p270:32:32-p271:32:32-p272:64:64-i64:64-i128:128-f80:128-n8:16:32:64-S128"
target triple = "x86_64-pc-linux-gnu"

; Function Attrs: nounwind uwtable
define hidden ptr @mpd_to_sci(ptr noundef %0, i32 noundef %1) #0 {
  %3 = alloca ptr, align 8
  %4 = alloca i32, align 4
  %5 = alloca ptr, align 8
  %6 = alloca i32, align 4
  store ptr %0, ptr %3, align 8, !tbaa !3
  store i32 %1, ptr %4, align 4, !tbaa !25
  call void @llvm.lifetime.start.p0(i64 8, ptr %5) #10
  call void @llvm.lifetime.start.p0(i64 4, ptr %6) #10
  store i32 2, ptr %6, align 4, !tbaa !25
  %7 = load i32, ptr %4, align 4, !tbaa !25
  %8 = icmp ne i32 %7, 0
  %9 = select i1 %8, i32 1, i32 0
  %10 = load i32, ptr %6, align 4, !tbaa !25
  %11 = or i32 %10, %9
  store i32 %11, ptr %6, align 4, !tbaa !25
  %12 = load ptr, ptr %3, align 8, !tbaa !3
  %13 = load i32, ptr %6, align 4, !tbaa !25
  %14 = call i64 @_mpd_to_string(ptr noundef %5, ptr noundef %12, i32 noundef %13, i64 noundef 1)
  %15 = load ptr, ptr %5, align 8, !tbaa !8
  call void @llvm.lifetime.end.p0(i64 4, ptr %6) #10
  call void @llvm.lifetime.end.p0(i64 8, ptr %5) #10
  ret ptr %15
}