; Function Attrs: nounwind uwtable
define hidden ptr @mpd_to_sci(ptr noundef %0, i32 noundef %1) local_unnamed_addr #0 {
  %3 = alloca ptr, align 8
  call void @llvm.lifetime.start.p0(i64 8, ptr nonnull %3) #18
  %.not = icmp ne i32 %1, 0
  %4 = zext i1 %.not to i32
  %5 = or disjoint i32 %4, 2
  %6 = call fastcc i64 @_mpd_to_string(ptr noundef nonnull %3, ptr noundef %0, i32 noundef %5, i64 noundef 1)
  %7 = load ptr, ptr %3, align 8, !tbaa !26
  call void @llvm.lifetime.end.p0(i64 8, ptr nonnull %3) #18
  ret ptr %7
}